; Function Attrs: mustprogress nofree norecurse nosync nounwind willreturn memory(read, inaccessiblemem: none) uwtable
define noundef i64 @_ZNK5arrow3ipc14MessageDecoder18next_required_sizeEv(ptr noundef nonnull readonly align 8 captures(none) dereferenceable(16) %0) local_unnamed_addr #6 align 2 {
  %2 = getelementptr inbounds nuw i8, ptr %0, i64 8
  %3 = load ptr, ptr %2, align 8, !tbaa !174
  %4 = getelementptr inbounds nuw i8, ptr %3, i64 48
  %5 = load i64, ptr %4, align 8, !tbaa !176
  %6 = getelementptr inbounds nuw i8, ptr %3, i64 80
  %7 = load i64, ptr %6, align 8, !tbaa !186
  %8 = sub nsw i64 %5, %7
  ret i64 %8
}